target datalayout = "e-m:e-p270:32:32-p271:32:32-p272:64:64-i64:64-i128:128-f80:128-n8:16:32:64-S128"
target triple = "x86_64-pc-linux-gnu"

%"class.std::__shared_count" = type { ptr }
%"class.std::shared_ptr.21" = type { %"class.std::__shared_ptr.22" }
%"class.std::__shared_ptr.22" = type { ptr, %"class.std::__shared_count" }
%"class.OpenColorIO_v2_5dev::GradingRGBCurveOpData" = type { %"class.OpenColorIO_v2_5dev::OpData", i32, %"class.std::shared_ptr.21", i8, i32 }
%"class.OpenColorIO_v2_5dev::OpData" = type { ptr, %"class.std::mutex", %"class.OpenColorIO_v2_5dev::FormatMetadataImpl" }
%"class.std::mutex" = type { %"class.std::__mutex_base" }
%"class.std::__mutex_base" = type { %union.pthread_mutex_t }
%union.pthread_mutex_t = type { %struct.__pthread_mutex_s }
%struct.__pthread_mutex_s = type { i32, i32, i32, i32, i32, i16, i16, %struct.__pthread_internal_list }
%struct.__pthread_internal_list = type { ptr, ptr }
%"class.OpenColorIO_v2_5dev::FormatMetadataImpl" = type { %"class.OpenColorIO_v2_5dev::FormatMetadata", %"class.std::__cxx11::basic_string", %"class.std::__cxx11::basic_string", %"class.std::vector.11", %"class.std::vector.16" }
%"class.OpenColorIO_v2_5dev::FormatMetadata" = type { ptr }
%"class.std::__cxx11::basic_string" = type { %"struct.std::__cxx11::basic_string<char>::_Alloc_hider", i64, %union.anon }
%"struct.std::__cxx11::basic_string<char>::_Alloc_hider" = type { ptr }
%union.anon = type { i64, [8 x i8] }
%"class.std::vector.11" = type { %"struct.std::_Vector_base.12" }
%"struct.std::_Vector_base.12" = type { %"struct.std::_Vector_base<std::pair<std::__cxx11::basic_string<char>, std::__cxx11::basic_string<char>>, std::allocator<std::pair<std::__cxx11::basic_string<char>, std::__cxx11::basic_string<char>>>>::_Vector_impl" }
%"struct.std::_Vector_base<std::pair<std::__cxx11::basic_string<char>, std::__cxx11::basic_string<char>>, std::allocator<std::pair<std::__cxx11::basic_string<char>, std::__cxx11::basic_string<char>>>>::_Vector_impl" = type { %"struct.std::_Vector_base<std::pair<std::__cxx11::basic_string<char>, std::__cxx11::basic_string<char>>, std::allocator<std::pair<std::__cxx11::basic_string<char>, std::__cxx11::basic_string<char>>>>::_Vector_impl_data" }
%"struct.std::_Vector_base<std::pair<std::__cxx11::basic_string<char>, std::__cxx11::basic_string<char>>, std::allocator<std::pair<std::__cxx11::basic_string<char>, std::__cxx11::basic_string<char>>>>::_Vector_impl_data" = type { ptr, ptr, ptr }
%"class.std::vector.16" = type { %"struct.std::_Vector_base.17" }
%"struct.std::_Vector_base.17" = type { %"struct.std::_Vector_base<OpenColorIO_v2_5dev::FormatMetadataImpl, std::allocator<OpenColorIO_v2_5dev::FormatMetadataImpl>>::_Vector_impl" }
%"struct.std::_Vector_base<OpenColorIO_v2_5dev::FormatMetadataImpl, std::allocator<OpenColorIO_v2_5dev::FormatMetadataImpl>>::_Vector_impl" = type { %"struct.std::_Vector_base<OpenColorIO_v2_5dev::FormatMetadataImpl, std::allocator<OpenColorIO_v2_5dev::FormatMetadataImpl>>::_Vector_impl_data" }
%"struct.std::_Vector_base<OpenColorIO_v2_5dev::FormatMetadataImpl, std::allocator<OpenColorIO_v2_5dev::FormatMetadataImpl>>::_Vector_impl_data" = type { ptr, ptr, ptr }
%"class.OpenColorIO_v2_5dev::DynamicPropertyImpl" = type <{ %"class.OpenColorIO_v2_5dev::DynamicProperty", i32, i8, [3 x i8] }>
%"class.OpenColorIO_v2_5dev::DynamicProperty" = type { ptr }

; Function Attrs: mustprogress nounwind uwtable
define linkonce_odr hidden noundef ptr @_ZNKSt12__shared_ptrIN19OpenColorIO_v2_5dev34DynamicPropertyGradingRGBCurveImplELN9__gnu_cxx12_Lock_policyE2EE3getEv(ptr noundef nonnull align 8 dereferenceable(16) %0) #6 comdat align 2 {
  %2 = alloca ptr, align 8
  store ptr %0, ptr %2, align 8, !tbaa !141
  %3 = load ptr, ptr %2, align 8
  %4 = getelementptr inbounds nuw %"class.std::__shared_ptr.22", ptr %3, i32 0, i32 0
  %5 = load ptr, ptr %4, align 8, !tbaa !143
  ret ptr %5
}

; Function Attrs: mustprogress nounwind uwtable
define linkonce_odr hidden noundef ptr @_ZNKSt19__shared_ptr_accessIN19OpenColorIO_v2_5dev34DynamicPropertyGradingRGBCurveImplELN9__gnu_cxx12_Lock_policyE2ELb0ELb0EE6_M_getEv(ptr noundef nonnull align 1 dereferenceable(1) %0) #6 comdat align 2 {
  %2 = alloca ptr, align 8
  store ptr %0, ptr %2, align 8, !tbaa !69
  %3 = load ptr, ptr %2, align 8
  %4 = call noundef ptr @_ZNKSt12__shared_ptrIN19OpenColorIO_v2_5dev34DynamicPropertyGradingRGBCurveImplELN9__gnu_cxx12_Lock_policyE2EE3getEv(ptr noundef nonnull align 8 dereferenceable(16) %3) #3
  ret ptr %4
}

; Function Attrs: mustprogress nounwind uwtable
define linkonce_odr hidden void @_ZN19OpenColorIO_v2_5dev19DynamicPropertyImpl11makeDynamicEv(ptr noundef nonnull align 8 dereferenceable(13) %0) #6 comdat align 2 {
  %2 = alloca ptr, align 8
  store ptr %0, ptr %2, align 8, !tbaa !71
  %3 = load ptr, ptr %2, align 8
  %4 = getelementptr inbounds nuw %"class.OpenColorIO_v2_5dev::DynamicPropertyImpl", ptr %3, i32 0, i32 2
  store i8 1, ptr %4, align 4, !tbaa !73
  ret void
}

; Function Attrs: mustprogress nounwind uwtable
define linkonce_odr hidden noundef zeroext i1 @_ZNK19OpenColorIO_v2_5dev19DynamicPropertyImpl9isDynamicEv(ptr noundef nonnull align 8 dereferenceable(13) %0) #6 comdat align 2 {
  %2 = alloca ptr, align 8
  store ptr %0, ptr %2, align 8, !tbaa !71
  %3 = load ptr, ptr %2, align 8
  %4 = getelementptr inbounds nuw %"class.OpenColorIO_v2_5dev::DynamicPropertyImpl", ptr %3, i32 0, i32 2
  %5 = load i8, ptr %4, align 4, !tbaa !73, !range !67, !noundef !68
  %6 = trunc i8 %5 to i1
  ret i1 %6
}

; Function Attrs: mustprogress nounwind uwtable
define linkonce_odr hidden noundef ptr @_ZNKSt19__shared_ptr_accessIN19OpenColorIO_v2_5dev34DynamicPropertyGradingRGBCurveImplELN9__gnu_cxx12_Lock_policyE2ELb0ELb0EEptEv(ptr noundef nonnull align 1 dereferenceable(1) %0) #6 comdat align 2 {
  %2 = alloca ptr, align 8
  store ptr %0, ptr %2, align 8, !tbaa !69
  %3 = load ptr, ptr %2, align 8
  %4 = call noundef ptr @_ZNKSt19__shared_ptr_accessIN19OpenColorIO_v2_5dev34DynamicPropertyGradingRGBCurveImplELN9__gnu_cxx12_Lock_policyE2ELb0ELb0EE6_M_getEv(ptr noundef nonnull align 1 dereferenceable(1) %3) #3
  ret ptr %4
}

; Function Attrs: mustprogress uwtable
define hidden noundef nonnull align 8 dereferenceable(200) ptr @_ZN19OpenColorIO_v2_5dev21GradingRGBCurveOpDataaSERKS0_(ptr noundef nonnull align 8 dereferenceable(200) %0, ptr noundef nonnull align 8 dereferenceable(200) %1) #4 align 2 {
  %3 = alloca ptr, align 8
  %4 = alloca ptr, align 8
  %5 = alloca ptr, align 8
  store ptr %0, ptr %4, align 8, !tbaa !14
  store ptr %1, ptr %5, align 8, !tbaa !14
  %6 = load ptr, ptr %4, align 8
  %7 = load ptr, ptr %5, align 8, !tbaa !14
  %8 = icmp eq ptr %6, %7
  br i1 %8, label %9, label %10

9:                                                ; preds = %2
  store ptr %6, ptr %3, align 8
  br label %47

10:                                               ; preds = %2
  %11 = load ptr, ptr %5, align 8, !tbaa !14
  %12 = call noundef nonnull align 8 dereferenceable(168) ptr @_ZN19OpenColorIO_v2_5dev6OpDataaSERKS0_(ptr noundef nonnull align 8 dereferenceable(168) %6, ptr noundef nonnull align 8 dereferenceable(168) %11)
  %13 = load ptr, ptr %5, align 8, !tbaa !14
  %14 = getelementptr inbounds nuw %"class.OpenColorIO_v2_5dev::GradingRGBCurveOpData", ptr %13, i32 0, i32 1
  %15 = load i32, ptr %14, align 8, !tbaa !18
  %16 = getelementptr inbounds nuw %"class.OpenColorIO_v2_5dev::GradingRGBCurveOpData", ptr %6, i32 0, i32 1
  store i32 %15, ptr %16, align 8, !tbaa !18
  %17 = load ptr, ptr %5, align 8, !tbaa !14
  %18 = getelementptr inbounds nuw %"class.OpenColorIO_v2_5dev::GradingRGBCurveOpData", ptr %17, i32 0, i32 4
  %19 = load i32, ptr %18, align 4, !tbaa !47
  %20 = getelementptr inbounds nuw %"class.OpenColorIO_v2_5dev::GradingRGBCurveOpData", ptr %6, i32 0, i32 4
  store i32 %19, ptr %20, align 4, !tbaa !47
  %21 = load ptr, ptr %5, align 8, !tbaa !14
  %22 = getelementptr inbounds nuw %"class.OpenColorIO_v2_5dev::GradingRGBCurveOpData", ptr %21, i32 0, i32 3
  %23 = load i8, ptr %22, align 8, !tbaa !46, !range !67, !noundef !68
  %24 = trunc i8 %23 to i1
  %25 = getelementptr inbounds nuw %"class.OpenColorIO_v2_5dev::GradingRGBCurveOpData", ptr %6, i32 0, i32 3
  %26 = zext i1 %24 to i8
  store i8 %26, ptr %25, align 8, !tbaa !46
  %27 = getelementptr inbounds nuw %"class.OpenColorIO_v2_5dev::GradingRGBCurveOpData", ptr %6, i32 0, i32 2
  %28 = call noundef ptr @_ZNKSt19__shared_ptr_accessIN19OpenColorIO_v2_5dev34DynamicPropertyGradingRGBCurveImplELN9__gnu_cxx12_Lock_policyE2ELb0ELb0EEptEv(ptr noundef nonnull align 1 dereferenceable(1) %27) #3
  %29 = load ptr, ptr %5, align 8, !tbaa !14
  %30 = getelementptr inbounds nuw %"class.OpenColorIO_v2_5dev::GradingRGBCurveOpData", ptr %29, i32 0, i32 2
  %31 = call noundef ptr @_ZNKSt19__shared_ptr_accessIN19OpenColorIO_v2_5dev34DynamicPropertyGradingRGBCurveImplELN9__gnu_cxx12_Lock_policyE2ELb0ELb0EEptEv(ptr noundef nonnull align 1 dereferenceable(1) %30) #3
  %32 = load ptr, ptr %31, align 8, !tbaa !16
  %33 = getelementptr inbounds ptr, ptr %32, i64 3
  %34 = load ptr, ptr %33, align 8
  %35 = call noundef nonnull align 8 dereferenceable(16) ptr %34(ptr noundef nonnull align 8 dereferenceable(144) %31)
  %36 = load ptr, ptr %28, align 8, !tbaa !16
  %37 = getelementptr inbounds ptr, ptr %36, i64 4
  %38 = load ptr, ptr %37, align 8
  call void %38(ptr noundef nonnull align 8 dereferenceable(144) %28, ptr noundef nonnull align 8 dereferenceable(16) %35)
  %39 = load ptr, ptr %5, align 8, !tbaa !14
  %40 = getelementptr inbounds nuw %"class.OpenColorIO_v2_5dev::GradingRGBCurveOpData", ptr %39, i32 0, i32 2
  %41 = call noundef ptr @_ZNKSt19__shared_ptr_accessIN19OpenColorIO_v2_5dev34DynamicPropertyGradingRGBCurveImplELN9__gnu_cxx12_Lock_policyE2ELb0ELb0EEptEv(ptr noundef nonnull align 1 dereferenceable(1) %40) #3
  %42 = call noundef zeroext i1 @_ZNK19OpenColorIO_v2_5dev19DynamicPropertyImpl9isDynamicEv(ptr noundef nonnull align 8 dereferenceable(13) %41) #3
  br i1 %42, label %43, label %46

43:                                               ; preds = %10
  %44 = getelementptr inbounds nuw %"class.OpenColorIO_v2_5dev::GradingRGBCurveOpData", ptr %6, i32 0, i32 2
  %45 = call noundef ptr @_ZNKSt19__shared_ptr_accessIN19OpenColorIO_v2_5dev34DynamicPropertyGradingRGBCurveImplELN9__gnu_cxx12_Lock_policyE2ELb0ELb0EEptEv(ptr noundef nonnull align 1 dereferenceable(1) %44) #3
  call void @_ZN19OpenColorIO_v2_5dev19DynamicPropertyImpl11makeDynamicEv(ptr noundef nonnull align 8 dereferenceable(13) %45) #3
  br label %46

46:                                               ; preds = %43, %10
  store ptr %6, ptr %3, align 8
  br label %47

47:                                               ; preds = %46, %9
  %48 = load ptr, ptr %3, align 8
  ret ptr %48
}