; Function Attrs: mustprogress uwtable
define hidden noundef nonnull align 8 dereferenceable(200) ptr @_ZN19OpenColorIO_v2_5dev21GradingRGBCurveOpDataaSERKS0_(ptr noundef nonnull returned align 8 dereferenceable(200) %0, ptr noundef nonnull align 8 dereferenceable(200) %1) local_unnamed_addr #3 align 2 {
  %3 = icmp eq ptr %0, %1
  br i1 %3, label %33, label %4

4:                                                ; preds = %2
  %5 = tail call noundef nonnull align 8 dereferenceable(168) ptr @_ZN19OpenColorIO_v2_5dev6OpDataaSERKS0_(ptr noundef nonnull align 8 dereferenceable(168) %0, ptr noundef nonnull align 8 dereferenceable(168) %1)
  %6 = getelementptr inbounds nuw i8, ptr %1, i64 168
  %7 = load i32, ptr %6, align 8, !tbaa !35
  %8 = getelementptr inbounds nuw i8, ptr %0, i64 168
  store i32 %7, ptr %8, align 8, !tbaa !35
  %9 = getelementptr inbounds nuw i8, ptr %1, i64 196
  %10 = load i32, ptr %9, align 4, !tbaa !62
  %11 = getelementptr inbounds nuw i8, ptr %0, i64 196
  store i32 %10, ptr %11, align 4, !tbaa !62
  %12 = getelementptr inbounds nuw i8, ptr %1, i64 192
  %13 = load i8, ptr %12, align 8, !tbaa !75, !range !76, !noundef !77
  %14 = getelementptr inbounds nuw i8, ptr %0, i64 192
  store i8 %13, ptr %14, align 8, !tbaa !75
  %15 = getelementptr inbounds nuw i8, ptr %0, i64 176
  %16 = load ptr, ptr %15, align 8, !tbaa !78
  %17 = getelementptr inbounds nuw i8, ptr %1, i64 176
  %18 = load ptr, ptr %17, align 8, !tbaa !78
  %19 = load ptr, ptr %18, align 8, !tbaa !18
  %20 = getelementptr inbounds nuw i8, ptr %19, i64 24
  %21 = load ptr, ptr %20, align 8
  %22 = tail call noundef nonnull align 8 dereferenceable(16) ptr %21(ptr noundef nonnull align 8 dereferenceable(144) %18)
  %23 = load ptr, ptr %16, align 8, !tbaa !18
  %24 = getelementptr inbounds nuw i8, ptr %23, i64 32
  %25 = load ptr, ptr %24, align 8
  tail call void %25(ptr noundef nonnull align 8 dereferenceable(144) %16, ptr noundef nonnull align 8 dereferenceable(16) %22)
  %26 = load ptr, ptr %17, align 8, !tbaa !78
  %27 = getelementptr inbounds nuw i8, ptr %26, i64 12
  %28 = load i8, ptr %27, align 4, !tbaa !79, !range !76, !noundef !77
  %29 = trunc nuw i8 %28 to i1
  br i1 %29, label %30, label %33

30:                                               ; preds = %4
  %31 = load ptr, ptr %15, align 8, !tbaa !78
  %32 = getelementptr inbounds nuw i8, ptr %31, i64 12
  store i8 1, ptr %32, align 4, !tbaa !79
  br label %33

33:                                               ; preds = %4, %30, %2
  ret ptr %0
}